; Function Attrs: nounwind uwtable
define noalias ptr @l_Array_forIn_x27Unsafe_loop___at_Lean_MVarId_getMVarDependencies_addMVars___spec__6___boxed(ptr noundef %0, ptr noundef %1, ptr noundef %2, ptr noundef %3, ptr noundef %4, ptr noundef %5, ptr noundef %6, ptr noundef %7, ptr noundef %8, ptr noundef %9, ptr noundef %10, ptr noundef %11, ptr noundef %12) local_unnamed_addr #1 {
  %14 = ptrtoint ptr %0 to i64
  %15 = lshr i64 %14, 1
  %16 = trunc i64 %15 to i8
  %17 = and i64 %14, 1
  %.not = icmp eq i64 %17, 0
  br i1 %.not, label %18, label %lean_dec.exit36

18:                                               ; preds = %13
  %19 = load i32, ptr %0, align 4, !tbaa !4
  %20 = icmp sgt i32 %19, 1
  br i1 %20, label %21, label %23, !prof !11

21:                                               ; preds = %18
  %22 = add nsw i32 %19, -1
  store i32 %22, ptr %0, align 4, !tbaa !4
  br label %lean_dec.exit36

23:                                               ; preds = %18
  %.not.i = icmp eq i32 %19, 0
  br i1 %.not.i, label %lean_dec.exit36, label %24

24:                                               ; preds = %23
  tail call void @lean_dec_ref_cold(ptr noundef nonnull %0) #4
  br label %lean_dec.exit36

lean_dec.exit36:                                  ; preds = %24, %23, %21, %13
  %25 = getelementptr i8, ptr %4, i64 8
  %.val57 = load i64, ptr %25, align 8, !tbaa !12
  %26 = ptrtoint ptr %4 to i64
  %27 = and i64 %26, 1
  %.not58 = icmp eq i64 %27, 0
  br i1 %.not58, label %28, label %lean_dec.exit35

28:                                               ; preds = %lean_dec.exit36
  %29 = load i32, ptr %4, align 4, !tbaa !4
  %30 = icmp sgt i32 %29, 1
  br i1 %30, label %31, label %33, !prof !11

31:                                               ; preds = %28
  %32 = add nsw i32 %29, -1
  store i32 %32, ptr %4, align 4, !tbaa !4
  br label %lean_dec.exit35

33:                                               ; preds = %28
  %.not.i37 = icmp eq i32 %29, 0
  br i1 %.not.i37, label %lean_dec.exit35, label %34

34:                                               ; preds = %33
  tail call void @lean_dec_ref_cold(ptr noundef nonnull %4) #4
  br label %lean_dec.exit35

lean_dec.exit35:                                  ; preds = %34, %33, %31, %lean_dec.exit36
  %35 = getelementptr i8, ptr %5, i64 8
  %.val = load i64, ptr %35, align 8, !tbaa !12
  %36 = ptrtoint ptr %5 to i64
  %37 = and i64 %36, 1
  %.not59 = icmp eq i64 %37, 0
  br i1 %.not59, label %38, label %lean_dec.exit34

38:                                               ; preds = %lean_dec.exit35
  %39 = load i32, ptr %5, align 4, !tbaa !4
  %40 = icmp sgt i32 %39, 1
  br i1 %40, label %41, label %43, !prof !11

41:                                               ; preds = %38
  %42 = add nsw i32 %39, -1
  store i32 %42, ptr %5, align 4, !tbaa !4
  br label %lean_dec.exit34

43:                                               ; preds = %38
  %.not.i39 = icmp eq i32 %39, 0
  br i1 %.not.i39, label %lean_dec.exit34, label %44

44:                                               ; preds = %43
  tail call void @lean_dec_ref_cold(ptr noundef nonnull %5) #4
  br label %lean_dec.exit34

lean_dec.exit34:                                  ; preds = %44, %43, %41, %lean_dec.exit35
  %45 = tail call ptr @l_Array_forIn_x27Unsafe_loop___at_Lean_MVarId_getMVarDependencies_addMVars___spec__6(i8 noundef zeroext %16, ptr poison, ptr poison, ptr noundef %3, i64 noundef %.val57, i64 noundef %.val, ptr noundef %6, ptr poison, ptr poison, ptr noundef %9, ptr poison, ptr poison, ptr noundef %12)
  %46 = ptrtoint ptr %11 to i64
  %47 = and i64 %46, 1
  %.not60 = icmp eq i64 %47, 0
  br i1 %.not60, label %48, label %lean_dec.exit33

48:                                               ; preds = %lean_dec.exit34
  %49 = load i32, ptr %11, align 4, !tbaa !4
  %50 = icmp sgt i32 %49, 1
  br i1 %50, label %51, label %53, !prof !11

51:                                               ; preds = %48
  %52 = add nsw i32 %49, -1
  store i32 %52, ptr %11, align 4, !tbaa !4
  br label %lean_dec.exit33

53:                                               ; preds = %48
  %.not.i41 = icmp eq i32 %49, 0
  br i1 %.not.i41, label %lean_dec.exit33, label %54

54:                                               ; preds = %53
  tail call void @lean_dec_ref_cold(ptr noundef nonnull %11) #4
  br label %lean_dec.exit33

lean_dec.exit33:                                  ; preds = %54, %53, %51, %lean_dec.exit34
  %55 = ptrtoint ptr %10 to i64
  %56 = and i64 %55, 1
  %.not61 = icmp eq i64 %56, 0
  br i1 %.not61, label %57, label %lean_dec.exit32

57:                                               ; preds = %lean_dec.exit33
  %58 = load i32, ptr %10, align 4, !tbaa !4
  %59 = icmp sgt i32 %58, 1
  br i1 %59, label %60, label %62, !prof !11

60:                                               ; preds = %57
  %61 = add nsw i32 %58, -1
  store i32 %61, ptr %10, align 4, !tbaa !4
  br label %lean_dec.exit32

62:                                               ; preds = %57
  %.not.i43 = icmp eq i32 %58, 0
  br i1 %.not.i43, label %lean_dec.exit32, label %63

63:                                               ; preds = %62
  tail call void @lean_dec_ref_cold(ptr noundef nonnull %10) #4
  br label %lean_dec.exit32

lean_dec.exit32:                                  ; preds = %63, %62, %60, %lean_dec.exit33
  %64 = ptrtoint ptr %9 to i64
  %65 = and i64 %64, 1
  %.not62 = icmp eq i64 %65, 0
  br i1 %.not62, label %66, label %lean_dec.exit31

66:                                               ; preds = %lean_dec.exit32
  %67 = load i32, ptr %9, align 4, !tbaa !4
  %68 = icmp sgt i32 %67, 1
  br i1 %68, label %69, label %71, !prof !11

69:                                               ; preds = %66
  %70 = add nsw i32 %67, -1
  store i32 %70, ptr %9, align 4, !tbaa !4
  br label %lean_dec.exit31

71:                                               ; preds = %66
  %.not.i45 = icmp eq i32 %67, 0
  br i1 %.not.i45, label %lean_dec.exit31, label %72

72:                                               ; preds = %71
  tail call void @lean_dec_ref_cold(ptr noundef nonnull %9) #4
  br label %lean_dec.exit31

lean_dec.exit31:                                  ; preds = %72, %71, %69, %lean_dec.exit32
  %73 = ptrtoint ptr %8 to i64
  %74 = and i64 %73, 1
  %.not63 = icmp eq i64 %74, 0
  br i1 %.not63, label %75, label %lean_dec.exit30

75:                                               ; preds = %lean_dec.exit31
  %76 = load i32, ptr %8, align 4, !tbaa !4
  %77 = icmp sgt i32 %76, 1
  br i1 %77, label %78, label %80, !prof !11

78:                                               ; preds = %75
  %79 = add nsw i32 %76, -1
  store i32 %79, ptr %8, align 4, !tbaa !4
  br label %lean_dec.exit30

80:                                               ; preds = %75
  %.not.i47 = icmp eq i32 %76, 0
  br i1 %.not.i47, label %lean_dec.exit30, label %81

81:                                               ; preds = %80
  tail call void @lean_dec_ref_cold(ptr noundef nonnull %8) #4
  br label %lean_dec.exit30

lean_dec.exit30:                                  ; preds = %81, %80, %78, %lean_dec.exit31
  %82 = ptrtoint ptr %7 to i64
  %83 = and i64 %82, 1
  %.not64 = icmp eq i64 %83, 0
  br i1 %.not64, label %84, label %lean_dec.exit29

84:                                               ; preds = %lean_dec.exit30
  %85 = load i32, ptr %7, align 4, !tbaa !4
  %86 = icmp sgt i32 %85, 1
  br i1 %86, label %87, label %89, !prof !11

87:                                               ; preds = %84
  %88 = add nsw i32 %85, -1
  store i32 %88, ptr %7, align 4, !tbaa !4
  br label %lean_dec.exit29

89:                                               ; preds = %84
  %.not.i49 = icmp eq i32 %85, 0
  br i1 %.not.i49, label %lean_dec.exit29, label %90

90:                                               ; preds = %89
  tail call void @lean_dec_ref_cold(ptr noundef nonnull %7) #4
  br label %lean_dec.exit29

lean_dec.exit29:                                  ; preds = %90, %89, %87, %lean_dec.exit30
  %91 = ptrtoint ptr %3 to i64
  %92 = and i64 %91, 1
  %.not65 = icmp eq i64 %92, 0
  br i1 %.not65, label %93, label %lean_dec.exit28

93:                                               ; preds = %lean_dec.exit29
  %94 = load i32, ptr %3, align 4, !tbaa !4
  %95 = icmp sgt i32 %94, 1
  br i1 %95, label %96, label %98, !prof !11

96:                                               ; preds = %93
  %97 = add nsw i32 %94, -1
  store i32 %97, ptr %3, align 4, !tbaa !4
  br label %lean_dec.exit28

98:                                               ; preds = %93
  %.not.i51 = icmp eq i32 %94, 0
  br i1 %.not.i51, label %lean_dec.exit28, label %99

99:                                               ; preds = %98
  tail call void @lean_dec_ref_cold(ptr noundef nonnull %3) #4
  br label %lean_dec.exit28

lean_dec.exit28:                                  ; preds = %99, %98, %96, %lean_dec.exit29
  %100 = ptrtoint ptr %2 to i64
  %101 = and i64 %100, 1
  %.not66 = icmp eq i64 %101, 0
  br i1 %.not66, label %102, label %lean_dec.exit27

102:                                              ; preds = %lean_dec.exit28
  %103 = load i32, ptr %2, align 4, !tbaa !4
  %104 = icmp sgt i32 %103, 1
  br i1 %104, label %105, label %107, !prof !11

105:                                              ; preds = %102
  %106 = add nsw i32 %103, -1
  store i32 %106, ptr %2, align 4, !tbaa !4
  br label %lean_dec.exit27

107:                                              ; preds = %102
  %.not.i53 = icmp eq i32 %103, 0
  br i1 %.not.i53, label %lean_dec.exit27, label %108

108:                                              ; preds = %107
  tail call void @lean_dec_ref_cold(ptr noundef nonnull %2) #4
  br label %lean_dec.exit27

lean_dec.exit27:                                  ; preds = %108, %107, %105, %lean_dec.exit28
  %109 = ptrtoint ptr %1 to i64
  %110 = and i64 %109, 1
  %.not67 = icmp eq i64 %110, 0
  br i1 %.not67, label %111, label %lean_dec.exit

111:                                              ; preds = %lean_dec.exit27
  %112 = load i32, ptr %1, align 4, !tbaa !4
  %113 = icmp sgt i32 %112, 1
  br i1 %113, label %114, label %116, !prof !11

114:                                              ; preds = %111
  %115 = add nsw i32 %112, -1
  store i32 %115, ptr %1, align 4, !tbaa !4
  br label %lean_dec.exit

116:                                              ; preds = %111
  %.not.i55 = icmp eq i32 %112, 0
  br i1 %.not.i55, label %lean_dec.exit, label %117

117:                                              ; preds = %116
  tail call void @lean_dec_ref_cold(ptr noundef nonnull %1) #4
  br label %lean_dec.exit

lean_dec.exit:                                    ; preds = %117, %116, %114, %lean_dec.exit27
  ret ptr %45
}